target datalayout = "e-m:e-p270:32:32-p271:32:32-p272:64:64-i64:64-i128:128-f80:128-n8:16:32:64-S128"
target triple = "x86_64-pc-linux-gnu"

%struct._zval_struct = type { %union._zend_value, %union.anon, %union.anon.2 }
%union._zend_value = type { i64 }
%union.anon = type { i32 }
%union.anon.2 = type { i32 }
%struct._zend_random_globals = type { ptr, i8, ptr, i8, i32 }
%struct._php_random_status_state_mt19937 = type { [624 x i32], i32, i8 }
%struct._zend_execute_data = type { ptr, ptr, ptr, ptr, %struct._zval_struct, ptr, ptr, ptr, ptr }

@random_globals = global %struct._zend_random_globals zeroinitializer, align 8
@.str.1 = private unnamed_addr constant [49 x i8] c"The MT_RAND_PHP variant of Mt19937 is deprecated\00", align 1

; Function Attrs: nounwind uwtable
define hidden void @zif_mt_srand(ptr noundef %0, ptr noundef %1) #0 {
  %3 = alloca ptr, align 8
  %4 = alloca ptr, align 8
  %5 = alloca ptr, align 8
  %6 = alloca ptr, align 8
  %7 = alloca i1, align 1
  %8 = alloca ptr, align 8
  %9 = alloca ptr, align 8
  %10 = alloca ptr, align 8
  %11 = alloca i8, align 1
  %12 = alloca i32, align 4
  %13 = alloca i8, align 1
  %14 = alloca i1, align 1
  %15 = alloca ptr, align 8
  %16 = alloca ptr, align 8
  %17 = alloca ptr, align 8
  %18 = alloca i8, align 1
  %19 = alloca i32, align 4
  %20 = alloca i8, align 1
  %21 = alloca ptr, align 8
  %22 = alloca ptr, align 8
  %23 = alloca ptr, align 8
  %24 = alloca i8, align 1
  %25 = alloca i32, align 4
  %26 = alloca ptr, align 8
  %27 = alloca ptr, align 8
  %28 = alloca ptr, align 8
  %29 = alloca i8, align 1
  %30 = alloca i32, align 4
  %31 = alloca ptr, align 8
  %32 = alloca ptr, align 8
  %33 = alloca i64, align 8
  %34 = alloca i8, align 1
  %35 = alloca i64, align 8
  %36 = alloca ptr, align 8
  %37 = alloca i32, align 4
  %38 = alloca i32, align 4
  %39 = alloca i32, align 4
  %40 = alloca i32, align 4
  %41 = alloca i32, align 4
  %42 = alloca ptr, align 8
  %43 = alloca ptr, align 8
  %44 = alloca i32, align 4
  %45 = alloca ptr, align 8
  %46 = alloca i8, align 1
  %47 = alloca i8, align 1
  %48 = alloca i32, align 4
  store ptr %0, ptr %31, align 8
  store ptr %1, ptr %32, align 8
  store i64 0, ptr %33, align 8
  store i8 1, ptr %34, align 1
  store i64 0, ptr %35, align 8
  %49 = load ptr, ptr getelementptr inbounds (%struct._zend_random_globals, ptr @random_globals, i32 0, i32 2), align 8
  store ptr %49, ptr %36, align 8
  br label %50

50:                                               ; preds = %2
  store i32 0, ptr %37, align 4
  store i32 0, ptr %38, align 4
  store i32 2, ptr %39, align 4
  %51 = load ptr, ptr %31, align 8
  %52 = getelementptr inbounds %struct._zend_execute_data, ptr %51, i32 0, i32 4
  %53 = getelementptr inbounds %struct._zval_struct, ptr %52, i32 0, i32 2
  %54 = load i32, ptr %53, align 4
  store i32 %54, ptr %40, align 4
  store i32 0, ptr %41, align 4
  store ptr null, ptr %43, align 8
  store i32 0, ptr %44, align 4
  store ptr null, ptr %45, align 8
  store i8 0, ptr %46, align 1
  store i8 0, ptr %47, align 1
  store i32 0, ptr %48, align 4
  br label %55

55:                                               ; preds = %50
  %56 = load i32, ptr %40, align 4
  %57 = load i32, ptr %38, align 4
  %58 = icmp ult i32 %56, %57
  %59 = xor i1 %58, true
  %60 = xor i1 %59, true
  %61 = zext i1 %60 to i32
  %62 = sext i32 %61 to i64
  %63 = icmp ne i64 %62, 0
  br i1 %63, label %73, label %64

64:                                               ; preds = %55
  %65 = load i32, ptr %40, align 4
  %66 = load i32, ptr %39, align 4
  %67 = icmp ugt i32 %65, %66
  %68 = xor i1 %67, true
  %69 = xor i1 %68, true
  %70 = zext i1 %69 to i32
  %71 = sext i32 %70 to i64
  %72 = icmp ne i64 %71, 0
  br i1 %72, label %73, label %76

73:                                               ; preds = %64, %55
  %74 = load i32, ptr %38, align 4
  %75 = load i32, ptr %39, align 4
  call void @zend_wrong_parameters_count_error(i32 noundef %74, i32 noundef %75)
  store i32 1, ptr %48, align 4
  br label %287

76:                                               ; preds = %64
  %77 = load ptr, ptr %31, align 8
  %78 = getelementptr inbounds %struct._zval_struct, ptr %77, i64 4
  store ptr %78, ptr %42, align 8
  store i8 1, ptr %47, align 1
  %79 = load i32, ptr %41, align 4
  %80 = add i32 %79, 1
  store i32 %80, ptr %41, align 4
  %81 = load i32, ptr %41, align 4
  %82 = load i32, ptr %38, align 4
  %83 = icmp ule i32 %81, %82
  br i1 %83, label %89, label %84

84:                                               ; preds = %76
  %85 = load i8, ptr %47, align 1
  %86 = trunc i8 %85 to i1
  %87 = zext i1 %86 to i32
  %88 = icmp eq i32 %87, 1
  br label %89

89:                                               ; preds = %84, %76
  %90 = phi i1 [ true, %76 ], [ %88, %84 ]
  call void @llvm.assume(i1 %90)
  %91 = load i32, ptr %41, align 4
  %92 = load i32, ptr %38, align 4
  %93 = icmp ugt i32 %91, %92
  br i1 %93, label %99, label %94

94:                                               ; preds = %89
  %95 = load i8, ptr %47, align 1
  %96 = trunc i8 %95 to i1
  %97 = zext i1 %96 to i32
  %98 = icmp eq i32 %97, 0
  br label %99

99:                                               ; preds = %94, %89
  %100 = phi i1 [ true, %89 ], [ %98, %94 ]
  call void @llvm.assume(i1 %100)
  %101 = load i8, ptr %47, align 1
  %102 = trunc i8 %101 to i1
  br i1 %102, label %103, label %114

103:                                              ; preds = %99
  %104 = load i32, ptr %41, align 4
  %105 = load i32, ptr %40, align 4
  %106 = icmp ugt i32 %104, %105
  %107 = xor i1 %106, true
  %108 = xor i1 %107, true
  %109 = zext i1 %108 to i32
  %110 = sext i32 %109 to i64
  %111 = icmp ne i64 %110, 0
  br i1 %111, label %112, label %113

112:                                              ; preds = %103
  br label %287

113:                                              ; preds = %103
  br label %114

114:                                              ; preds = %113, %99
  %115 = load ptr, ptr %42, align 8
  %116 = getelementptr inbounds %struct._zval_struct, ptr %115, i32 1
  store ptr %116, ptr %42, align 8
  %117 = load ptr, ptr %42, align 8
  store ptr %117, ptr %43, align 8
  %118 = load ptr, ptr %43, align 8
  %119 = load i32, ptr %41, align 4
  store ptr %118, ptr %21, align 8
  store ptr %33, ptr %22, align 8
  store ptr %34, ptr %23, align 8
  store i8 1, ptr %24, align 1
  store i32 %119, ptr %25, align 4
  %120 = load ptr, ptr %21, align 8
  %121 = load ptr, ptr %22, align 8
  %122 = load ptr, ptr %23, align 8
  %123 = load i8, ptr %24, align 1
  %124 = trunc i8 %123 to i1
  %125 = load i32, ptr %25, align 4
  store ptr %120, ptr %15, align 8
  store ptr %121, ptr %16, align 8
  store ptr %122, ptr %17, align 8
  %126 = zext i1 %124 to i8
  store i8 %126, ptr %18, align 1
  store i32 %125, ptr %19, align 4
  store i8 0, ptr %20, align 1
  %127 = load i8, ptr %18, align 1
  %128 = trunc i8 %127 to i1
  br i1 %128, label %129, label %131

129:                                              ; preds = %114
  %130 = load ptr, ptr %17, align 8
  store i8 0, ptr %130, align 1
  br label %131

131:                                              ; preds = %129, %114
  %132 = load ptr, ptr %15, align 8
  store ptr %132, ptr %3, align 8
  %133 = load ptr, ptr %3, align 8
  %134 = getelementptr inbounds %struct._zval_struct, ptr %133, i32 0, i32 1
  %135 = load i8, ptr %134, align 8
  %136 = zext i8 %135 to i32
  %137 = icmp eq i32 %136, 4
  br i1 %137, label %138, label %142

138:                                              ; preds = %131
  %139 = load ptr, ptr %15, align 8
  %140 = load i64, ptr %139, align 8
  %141 = load ptr, ptr %16, align 8
  store i64 %140, ptr %141, align 8
  br label %168

142:                                              ; preds = %131
  %143 = load i8, ptr %18, align 1
  %144 = trunc i8 %143 to i1
  br i1 %144, label %145, label %155

145:                                              ; preds = %142
  %146 = load ptr, ptr %15, align 8
  store ptr %146, ptr %4, align 8
  %147 = load ptr, ptr %4, align 8
  %148 = getelementptr inbounds %struct._zval_struct, ptr %147, i32 0, i32 1
  %149 = load i8, ptr %148, align 8
  %150 = zext i8 %149 to i32
  %151 = icmp eq i32 %150, 1
  br i1 %151, label %152, label %155

152:                                              ; preds = %145
  %153 = load ptr, ptr %17, align 8
  store i8 1, ptr %153, align 1
  %154 = load ptr, ptr %16, align 8
  store i64 0, ptr %154, align 8
  br label %168

155:                                              ; preds = %145, %142
  %156 = load i8, ptr %20, align 1
  %157 = trunc i8 %156 to i1
  br i1 %157, label %158, label %163

158:                                              ; preds = %155
  %159 = load ptr, ptr %15, align 8
  %160 = load ptr, ptr %16, align 8
  %161 = load i32, ptr %19, align 4
  %162 = call zeroext i1 @zend_flf_parse_arg_long_slow(ptr noundef %159, ptr noundef %160, i32 noundef %161) #10
  store i1 %162, ptr %14, align 1
  br label %169

163:                                              ; preds = %155
  %164 = load ptr, ptr %15, align 8
  %165 = load ptr, ptr %16, align 8
  %166 = load i32, ptr %19, align 4
  %167 = call zeroext i1 @zend_parse_arg_long_slow(ptr noundef %164, ptr noundef %165, i32 noundef %166) #10
  store i1 %167, ptr %14, align 1
  br label %169

168:                                              ; preds = %152, %138
  store i1 true, ptr %14, align 1
  br label %169

169:                                              ; preds = %168, %163, %158
  %170 = load i1, ptr %14, align 1
  %171 = xor i1 %170, true
  %172 = xor i1 %171, true
  %173 = xor i1 %172, true
  %174 = zext i1 %173 to i32
  %175 = sext i32 %174 to i64
  %176 = icmp ne i64 %175, 0
  br i1 %176, label %177, label %178

177:                                              ; preds = %169
  store i32 1, ptr %44, align 4
  store i32 9, ptr %48, align 4
  br label %287

178:                                              ; preds = %169
  %179 = load i32, ptr %41, align 4
  %180 = add i32 %179, 1
  store i32 %180, ptr %41, align 4
  %181 = load i32, ptr %41, align 4
  %182 = load i32, ptr %38, align 4
  %183 = icmp ule i32 %181, %182
  br i1 %183, label %189, label %184

184:                                              ; preds = %178
  %185 = load i8, ptr %47, align 1
  %186 = trunc i8 %185 to i1
  %187 = zext i1 %186 to i32
  %188 = icmp eq i32 %187, 1
  br label %189

189:                                              ; preds = %184, %178
  %190 = phi i1 [ true, %178 ], [ %188, %184 ]
  call void @llvm.assume(i1 %190)
  %191 = load i32, ptr %41, align 4
  %192 = load i32, ptr %38, align 4
  %193 = icmp ugt i32 %191, %192
  br i1 %193, label %199, label %194

194:                                              ; preds = %189
  %195 = load i8, ptr %47, align 1
  %196 = trunc i8 %195 to i1
  %197 = zext i1 %196 to i32
  %198 = icmp eq i32 %197, 0
  br label %199

199:                                              ; preds = %194, %189
  %200 = phi i1 [ true, %189 ], [ %198, %194 ]
  call void @llvm.assume(i1 %200)
  %201 = load i8, ptr %47, align 1
  %202 = trunc i8 %201 to i1
  br i1 %202, label %203, label %214

203:                                              ; preds = %199
  %204 = load i32, ptr %41, align 4
  %205 = load i32, ptr %40, align 4
  %206 = icmp ugt i32 %204, %205
  %207 = xor i1 %206, true
  %208 = xor i1 %207, true
  %209 = zext i1 %208 to i32
  %210 = sext i32 %209 to i64
  %211 = icmp ne i64 %210, 0
  br i1 %211, label %212, label %213

212:                                              ; preds = %203
  br label %287

213:                                              ; preds = %203
  br label %214

214:                                              ; preds = %213, %199
  %215 = load ptr, ptr %42, align 8
  %216 = getelementptr inbounds %struct._zval_struct, ptr %215, i32 1
  store ptr %216, ptr %42, align 8
  %217 = load ptr, ptr %42, align 8
  store ptr %217, ptr %43, align 8
  %218 = load ptr, ptr %43, align 8
  %219 = load i32, ptr %41, align 4
  store ptr %218, ptr %26, align 8
  store ptr %35, ptr %27, align 8
  store ptr %46, ptr %28, align 8
  store i8 0, ptr %29, align 1
  store i32 %219, ptr %30, align 4
  %220 = load ptr, ptr %26, align 8
  %221 = load ptr, ptr %27, align 8
  %222 = load ptr, ptr %28, align 8
  %223 = load i8, ptr %29, align 1
  %224 = trunc i8 %223 to i1
  %225 = load i32, ptr %30, align 4
  store ptr %220, ptr %8, align 8
  store ptr %221, ptr %9, align 8
  store ptr %222, ptr %10, align 8
  %226 = zext i1 %224 to i8
  store i8 %226, ptr %11, align 1
  store i32 %225, ptr %12, align 4
  store i8 0, ptr %13, align 1
  %227 = load i8, ptr %11, align 1
  %228 = trunc i8 %227 to i1
  br i1 %228, label %229, label %231

229:                                              ; preds = %214
  %230 = load ptr, ptr %10, align 8
  store i8 0, ptr %230, align 1
  br label %231

231:                                              ; preds = %229, %214
  %232 = load ptr, ptr %8, align 8
  store ptr %232, ptr %5, align 8
  %233 = load ptr, ptr %5, align 8
  %234 = getelementptr inbounds %struct._zval_struct, ptr %233, i32 0, i32 1
  %235 = load i8, ptr %234, align 8
  %236 = zext i8 %235 to i32
  %237 = icmp eq i32 %236, 4
  br i1 %237, label %238, label %242

238:                                              ; preds = %231
  %239 = load ptr, ptr %8, align 8
  %240 = load i64, ptr %239, align 8
  %241 = load ptr, ptr %9, align 8
  store i64 %240, ptr %241, align 8
  br label %268

242:                                              ; preds = %231
  %243 = load i8, ptr %11, align 1
  %244 = trunc i8 %243 to i1
  br i1 %244, label %245, label %255

245:                                              ; preds = %242
  %246 = load ptr, ptr %8, align 8
  store ptr %246, ptr %6, align 8
  %247 = load ptr, ptr %6, align 8
  %248 = getelementptr inbounds %struct._zval_struct, ptr %247, i32 0, i32 1
  %249 = load i8, ptr %248, align 8
  %250 = zext i8 %249 to i32
  %251 = icmp eq i32 %250, 1
  br i1 %251, label %252, label %255

252:                                              ; preds = %245
  %253 = load ptr, ptr %10, align 8
  store i8 1, ptr %253, align 1
  %254 = load ptr, ptr %9, align 8
  store i64 0, ptr %254, align 8
  br label %268

255:                                              ; preds = %245, %242
  %256 = load i8, ptr %13, align 1
  %257 = trunc i8 %256 to i1
  br i1 %257, label %258, label %263

258:                                              ; preds = %255
  %259 = load ptr, ptr %8, align 8
  %260 = load ptr, ptr %9, align 8
  %261 = load i32, ptr %12, align 4
  %262 = call zeroext i1 @zend_flf_parse_arg_long_slow(ptr noundef %259, ptr noundef %260, i32 noundef %261) #10
  store i1 %262, ptr %7, align 1
  br label %269

263:                                              ; preds = %255
  %264 = load ptr, ptr %8, align 8
  %265 = load ptr, ptr %9, align 8
  %266 = load i32, ptr %12, align 4
  %267 = call zeroext i1 @zend_parse_arg_long_slow(ptr noundef %264, ptr noundef %265, i32 noundef %266) #10
  store i1 %267, ptr %7, align 1
  br label %269

268:                                              ; preds = %252, %238
  store i1 true, ptr %7, align 1
  br label %269

269:                                              ; preds = %268, %263, %258
  %270 = load i1, ptr %7, align 1
  %271 = xor i1 %270, true
  %272 = xor i1 %271, true
  %273 = xor i1 %272, true
  %274 = zext i1 %273 to i32
  %275 = sext i32 %274 to i64
  %276 = icmp ne i64 %275, 0
  br i1 %276, label %277, label %278

277:                                              ; preds = %269
  store i32 0, ptr %44, align 4
  store i32 9, ptr %48, align 4
  br label %287

278:                                              ; preds = %269
  %279 = load i32, ptr %41, align 4
  %280 = load i32, ptr %39, align 4
  %281 = icmp eq i32 %279, %280
  br i1 %281, label %285, label %282

282:                                              ; preds = %278
  %283 = load i32, ptr %39, align 4
  %284 = icmp eq i32 %283, -1
  br label %285

285:                                              ; preds = %282, %278
  %286 = phi i1 [ true, %278 ], [ %284, %282 ]
  call void @llvm.assume(i1 %286)
  br label %287

287:                                              ; preds = %285, %277, %212, %177, %112, %73
  %288 = load i32, ptr %48, align 4
  %289 = icmp ne i32 %288, 0
  %290 = xor i1 %289, true
  %291 = xor i1 %290, true
  %292 = zext i1 %291 to i32
  %293 = sext i32 %292 to i64
  %294 = icmp ne i64 %293, 0
  br i1 %294, label %295, label %301

295:                                              ; preds = %287
  %296 = load i32, ptr %48, align 4
  %297 = load i32, ptr %41, align 4
  %298 = load ptr, ptr %45, align 8
  %299 = load i32, ptr %44, align 4
  %300 = load ptr, ptr %43, align 8
  call void @zend_wrong_parameter_error(i32 noundef %296, i32 noundef %297, ptr noundef %298, i32 noundef %299, ptr noundef %300)
  br label %320

301:                                              ; preds = %287
  br label %302

302:                                              ; preds = %301
  %303 = load i64, ptr %35, align 8
  switch i64 %303, label %307 [
    i64 1, label %304
  ]

304:                                              ; preds = %302
  %305 = load ptr, ptr %36, align 8
  %306 = getelementptr inbounds %struct._php_random_status_state_mt19937, ptr %305, i32 0, i32 2
  store i8 1, ptr %306, align 4
  call void (i32, ptr, ...) @zend_error(i32 noundef 8192, ptr noundef @.str.1)
  br label %310

307:                                              ; preds = %302
  %308 = load ptr, ptr %36, align 8
  %309 = getelementptr inbounds %struct._php_random_status_state_mt19937, ptr %308, i32 0, i32 2
  store i8 0, ptr %309, align 4
  br label %310

310:                                              ; preds = %307, %304
  %311 = load i8, ptr %34, align 1
  %312 = trunc i8 %311 to i1
  br i1 %312, label %313, label %315

313:                                              ; preds = %310
  %314 = load ptr, ptr %36, align 8
  call void @php_random_mt19937_seed_default(ptr noundef %314)
  br label %319

315:                                              ; preds = %310
  %316 = load ptr, ptr %36, align 8
  %317 = load i64, ptr %33, align 8
  %318 = trunc i64 %317 to i32
  call void @php_random_mt19937_seed32(ptr noundef %316, i32 noundef %318)
  br label %319

319:                                              ; preds = %315, %313
  store i8 1, ptr getelementptr inbounds (%struct._zend_random_globals, ptr @random_globals, i32 0, i32 3), align 8
  br label %320

320:                                              ; preds = %319, %295
  ret void
}