; Function Attrs: nounwind uwtable
define hidden void @zif_mt_srand(ptr noundef %0, ptr nocapture readnone %1) #0 {
  %3 = alloca i64, align 8
  %4 = alloca i64, align 8
  store i64 0, ptr %3, align 8
  store i64 0, ptr %4, align 8
  %5 = load ptr, ptr getelementptr inbounds (%struct._zend_random_globals, ptr @random_globals, i64 0, i32 2), align 8
  %6 = getelementptr inbounds i8, ptr %0, i64 44
  %7 = load i32, ptr %6, align 4
  %8 = icmp ugt i32 %7, 2
  br i1 %8, label %9, label %10

9:                                                ; preds = %2
  tail call void @zend_wrong_parameters_count_error(i32 noundef 0, i32 noundef 2) #13
  br label %.thread130

10:                                               ; preds = %2
  %11 = icmp eq i32 %7, 0
  br i1 %11, label %.thread141.thread, label %12

12:                                               ; preds = %10
  %13 = getelementptr inbounds i8, ptr %0, i64 80
  %14 = getelementptr inbounds i8, ptr %0, i64 88
  %15 = load i8, ptr %14, align 8
  switch i8 %15, label %18 [
    i8 4, label %16
    i8 1, label %.thread
  ]

16:                                               ; preds = %12
  %17 = load i64, ptr %13, align 8
  br label %.thread

.thread:                                          ; preds = %16, %12
  %storemerge = phi i64 [ %17, %16 ], [ 0, %12 ]
  %.1 = phi i8 [ 0, %16 ], [ %15, %12 ]
  store i64 %storemerge, ptr %3, align 8
  br label %20

18:                                               ; preds = %12
  %19 = call zeroext i1 @zend_parse_arg_long_slow(ptr noundef nonnull %13, ptr noundef nonnull %3, i32 noundef 1) #13
  br i1 %19, label %20, label %.thread130

20:                                               ; preds = %.thread, %18
  %.2110 = phi i8 [ %.1, %.thread ], [ 0, %18 ]
  %.not = icmp eq i32 %7, 2
  br i1 %.not, label %21, label %.thread141.thread

21:                                               ; preds = %20
  %22 = getelementptr inbounds i8, ptr %0, i64 96
  %23 = getelementptr inbounds i8, ptr %0, i64 104
  %24 = load i8, ptr %23, align 8
  %25 = icmp eq i8 %24, 4
  br i1 %25, label %.thread116, label %27

.thread116:                                       ; preds = %21
  %26 = load i64, ptr %22, align 8
  store i64 %26, ptr %4, align 8
  br label %.thread141

27:                                               ; preds = %21
  %28 = call zeroext i1 @zend_parse_arg_long_slow(ptr noundef nonnull %22, ptr noundef nonnull %4, i32 noundef 2) #13
  %.fr = freeze i1 %28
  br i1 %.fr, label %..thread141thread-pre-split_crit_edge, label %.thread130

..thread141thread-pre-split_crit_edge:            ; preds = %27
  %.pr.pre = load i64, ptr %4, align 8
  br label %.thread141

.thread130:                                       ; preds = %18, %9, %27
  %.0140 = phi i32 [ 9, %27 ], [ 9, %18 ], [ 1, %9 ]
  %.097139 = phi i32 [ 0, %27 ], [ 1, %18 ], [ 0, %9 ]
  %.098138 = phi ptr [ %22, %27 ], [ %13, %18 ], [ null, %9 ]
  %.099137 = phi i32 [ 2, %27 ], [ 1, %18 ], [ 0, %9 ]
  call void @zend_wrong_parameter_error(i32 noundef %.0140, i32 noundef %.099137, ptr noundef null, i32 noundef %.097139, ptr noundef %.098138) #13
  br label %39

.thread141:                                       ; preds = %..thread141thread-pre-split_crit_edge, %.thread116
  %29 = phi i64 [ %26, %.thread116 ], [ %.pr.pre, %..thread141thread-pre-split_crit_edge ]
  %cond = icmp eq i64 %29, 1
  br i1 %cond, label %30, label %.thread141.thread

30:                                               ; preds = %.thread141
  %31 = getelementptr inbounds i8, ptr %5, i64 2500
  store i8 1, ptr %31, align 4
  call void (i32, ptr, ...) @zend_error(i32 noundef 8192, ptr noundef nonnull @.str.1) #13
  br label %33

.thread141.thread:                                ; preds = %20, %10, %.thread141
  %.3127146 = phi i8 [ %.2110, %.thread141 ], [ %.2110, %20 ], [ 1, %10 ]
  %32 = getelementptr inbounds i8, ptr %5, i64 2500
  store i8 0, ptr %32, align 4
  br label %33

33:                                               ; preds = %.thread141.thread, %30
  %.3127145 = phi i8 [ %.3127146, %.thread141.thread ], [ %.2110, %30 ]
  %.not106 = icmp eq i8 %.3127145, 0
  br i1 %.not106, label %35, label %34

34:                                               ; preds = %33
  call void @php_random_mt19937_seed_default(ptr noundef nonnull %5) #13
  br label %38

35:                                               ; preds = %33
  %36 = load i64, ptr %3, align 8
  %37 = trunc i64 %36 to i32
  call void @php_random_mt19937_seed32(ptr noundef nonnull %5, i32 noundef %37) #13
  br label %38

38:                                               ; preds = %35, %34
  store i8 1, ptr getelementptr inbounds (%struct._zend_random_globals, ptr @random_globals, i64 0, i32 3), align 8
  br label %39

39:                                               ; preds = %38, %.thread130
  ret void
}